; Function Attrs: mustprogress nofree norecurse nosync nounwind willreturn memory(argmem: write) uwtable
define void @_ZN3g2o13HyperDijkstra17AdjacencyMapEntryC2EPNS_10HyperGraph6VertexES4_PNS2_4EdgeEd(ptr noundef nonnull align 8 dereferenceable(80) initializes((0, 32), (40, 44), (48, 56)) %0, ptr noundef %1, ptr noundef %2, ptr noundef %3, double noundef %4) unnamed_addr #2 align 2 personality ptr @__gxx_personality_v0 {
  store ptr %1, ptr %0, align 8, !tbaa !6
  %6 = getelementptr inbounds nuw i8, ptr %0, i64 8
  store ptr %2, ptr %6, align 8, !tbaa !23
  %7 = getelementptr inbounds nuw i8, ptr %0, i64 16
  store ptr %3, ptr %7, align 8, !tbaa !24
  %8 = getelementptr inbounds nuw i8, ptr %0, i64 24
  store double %4, ptr %8, align 8, !tbaa !25
  %9 = getelementptr inbounds nuw i8, ptr %0, i64 40
  store i32 0, ptr %9, align 8, !tbaa !26
  %10 = getelementptr inbounds nuw i8, ptr %0, i64 48
  store ptr null, ptr %10, align 8, !tbaa !27
  %11 = getelementptr inbounds nuw i8, ptr %0, i64 56
  store ptr %9, ptr %11, align 8, !tbaa !28
  %12 = getelementptr inbounds nuw i8, ptr %0, i64 64
  store ptr %9, ptr %12, align 8, !tbaa !29
  %13 = getelementptr inbounds nuw i8, ptr %0, i64 72
  store i64 0, ptr %13, align 8, !tbaa !30
  ret void
}